
;CodeVisionAVR C Compiler V3.12 Advanced
;(C) Copyright 1998-2014 Pavel Haiduc, HP InfoTech s.r.l.
;http://www.hpinfotech.com

;Build configuration    : Debug
;Chip type              : ATmega16A
;Program type           : Application
;Clock frequency        : 4.000000 MHz
;Memory model           : Small
;Optimize for           : Size
;(s)printf features     : float, width, precision
;(s)scanf features      : int, width
;External RAM size      : 0
;Data Stack size        : 256 byte(s)
;Heap size              : 0 byte(s)
;Promote 'char' to 'int': Yes
;'char' is unsigned     : Yes
;8 bit enums            : Yes
;Global 'const' stored in FLASH: Yes
;Enhanced function parameter passing: Yes
;Enhanced core instructions: On
;Automatic register allocation for global variables: On
;Smart register allocation: On

	#define _MODEL_SMALL_

	#pragma AVRPART ADMIN PART_NAME ATmega16A
	#pragma AVRPART MEMORY PROG_FLASH 16384
	#pragma AVRPART MEMORY EEPROM 512
	#pragma AVRPART MEMORY INT_SRAM SIZE 1024
	#pragma AVRPART MEMORY INT_SRAM START_ADDR 0x60

	#define CALL_SUPPORTED 1

	.LISTMAC
	.EQU UDRE=0x5
	.EQU RXC=0x7
	.EQU USR=0xB
	.EQU UDR=0xC
	.EQU SPSR=0xE
	.EQU SPDR=0xF
	.EQU EERE=0x0
	.EQU EEWE=0x1
	.EQU EEMWE=0x2
	.EQU EECR=0x1C
	.EQU EEDR=0x1D
	.EQU EEARL=0x1E
	.EQU EEARH=0x1F
	.EQU WDTCR=0x21
	.EQU MCUCR=0x35
	.EQU GICR=0x3B
	.EQU SPL=0x3D
	.EQU SPH=0x3E
	.EQU SREG=0x3F

	.DEF R0X0=R0
	.DEF R0X1=R1
	.DEF R0X2=R2
	.DEF R0X3=R3
	.DEF R0X4=R4
	.DEF R0X5=R5
	.DEF R0X6=R6
	.DEF R0X7=R7
	.DEF R0X8=R8
	.DEF R0X9=R9
	.DEF R0XA=R10
	.DEF R0XB=R11
	.DEF R0XC=R12
	.DEF R0XD=R13
	.DEF R0XE=R14
	.DEF R0XF=R15
	.DEF R0X10=R16
	.DEF R0X11=R17
	.DEF R0X12=R18
	.DEF R0X13=R19
	.DEF R0X14=R20
	.DEF R0X15=R21
	.DEF R0X16=R22
	.DEF R0X17=R23
	.DEF R0X18=R24
	.DEF R0X19=R25
	.DEF R0X1A=R26
	.DEF R0X1B=R27
	.DEF R0X1C=R28
	.DEF R0X1D=R29
	.DEF R0X1E=R30
	.DEF R0X1F=R31

	.EQU __SRAM_START=0x0060
	.EQU __SRAM_END=0x045F
	.EQU __DSTACK_SIZE=0x0100
	.EQU __HEAP_SIZE=0x0000
	.EQU __CLEAR_SRAM_SIZE=__SRAM_END-__SRAM_START+1

	.MACRO __CPD1N
	CPI  R30,LOW(@0)
	LDI  R26,HIGH(@0)
	CPC  R31,R26
	LDI  R26,BYTE3(@0)
	CPC  R22,R26
	LDI  R26,BYTE4(@0)
	CPC  R23,R26
	.ENDM

	.MACRO __CPD2N
	CPI  R26,LOW(@0)
	LDI  R30,HIGH(@0)
	CPC  R27,R30
	LDI  R30,BYTE3(@0)
	CPC  R24,R30
	LDI  R30,BYTE4(@0)
	CPC  R25,R30
	.ENDM

	.MACRO __CPWRR
	CP   R@0,R@2
	CPC  R@1,R@3
	.ENDM

	.MACRO __CPWRN
	CPI  R@0,LOW(@2)
	LDI  R30,HIGH(@2)
	CPC  R@1,R30
	.ENDM

	.MACRO __ADDB1MN
	SUBI R30,LOW(-@0-(@1))
	.ENDM

	.MACRO __ADDB2MN
	SUBI R26,LOW(-@0-(@1))
	.ENDM

	.MACRO __ADDW1MN
	SUBI R30,LOW(-@0-(@1))
	SBCI R31,HIGH(-@0-(@1))
	.ENDM

	.MACRO __ADDW2MN
	SUBI R26,LOW(-@0-(@1))
	SBCI R27,HIGH(-@0-(@1))
	.ENDM

	.MACRO __ADDW1FN
	SUBI R30,LOW(-2*@0-(@1))
	SBCI R31,HIGH(-2*@0-(@1))
	.ENDM

	.MACRO __ADDD1FN
	SUBI R30,LOW(-2*@0-(@1))
	SBCI R31,HIGH(-2*@0-(@1))
	SBCI R22,BYTE3(-2*@0-(@1))
	.ENDM

	.MACRO __ADDD1N
	SUBI R30,LOW(-@0)
	SBCI R31,HIGH(-@0)
	SBCI R22,BYTE3(-@0)
	SBCI R23,BYTE4(-@0)
	.ENDM

	.MACRO __ADDD2N
	SUBI R26,LOW(-@0)
	SBCI R27,HIGH(-@0)
	SBCI R24,BYTE3(-@0)
	SBCI R25,BYTE4(-@0)
	.ENDM

	.MACRO __SUBD1N
	SUBI R30,LOW(@0)
	SBCI R31,HIGH(@0)
	SBCI R22,BYTE3(@0)
	SBCI R23,BYTE4(@0)
	.ENDM

	.MACRO __SUBD2N
	SUBI R26,LOW(@0)
	SBCI R27,HIGH(@0)
	SBCI R24,BYTE3(@0)
	SBCI R25,BYTE4(@0)
	.ENDM

	.MACRO __ANDBMNN
	LDS  R30,@0+(@1)
	ANDI R30,LOW(@2)
	STS  @0+(@1),R30
	.ENDM

	.MACRO __ANDWMNN
	LDS  R30,@0+(@1)
	ANDI R30,LOW(@2)
	STS  @0+(@1),R30
	LDS  R30,@0+(@1)+1
	ANDI R30,HIGH(@2)
	STS  @0+(@1)+1,R30
	.ENDM

	.MACRO __ANDD1N
	ANDI R30,LOW(@0)
	ANDI R31,HIGH(@0)
	ANDI R22,BYTE3(@0)
	ANDI R23,BYTE4(@0)
	.ENDM

	.MACRO __ANDD2N
	ANDI R26,LOW(@0)
	ANDI R27,HIGH(@0)
	ANDI R24,BYTE3(@0)
	ANDI R25,BYTE4(@0)
	.ENDM

	.MACRO __ORBMNN
	LDS  R30,@0+(@1)
	ORI  R30,LOW(@2)
	STS  @0+(@1),R30
	.ENDM

	.MACRO __ORWMNN
	LDS  R30,@0+(@1)
	ORI  R30,LOW(@2)
	STS  @0+(@1),R30
	LDS  R30,@0+(@1)+1
	ORI  R30,HIGH(@2)
	STS  @0+(@1)+1,R30
	.ENDM

	.MACRO __ORD1N
	ORI  R30,LOW(@0)
	ORI  R31,HIGH(@0)
	ORI  R22,BYTE3(@0)
	ORI  R23,BYTE4(@0)
	.ENDM

	.MACRO __ORD2N
	ORI  R26,LOW(@0)
	ORI  R27,HIGH(@0)
	ORI  R24,BYTE3(@0)
	ORI  R25,BYTE4(@0)
	.ENDM

	.MACRO __DELAY_USB
	LDI  R24,LOW(@0)
__DELAY_USB_LOOP:
	DEC  R24
	BRNE __DELAY_USB_LOOP
	.ENDM

	.MACRO __DELAY_USW
	LDI  R24,LOW(@0)
	LDI  R25,HIGH(@0)
__DELAY_USW_LOOP:
	SBIW R24,1
	BRNE __DELAY_USW_LOOP
	.ENDM

	.MACRO __GETD1S
	LDD  R30,Y+@0
	LDD  R31,Y+@0+1
	LDD  R22,Y+@0+2
	LDD  R23,Y+@0+3
	.ENDM

	.MACRO __GETD2S
	LDD  R26,Y+@0
	LDD  R27,Y+@0+1
	LDD  R24,Y+@0+2
	LDD  R25,Y+@0+3
	.ENDM

	.MACRO __PUTD1S
	STD  Y+@0,R30
	STD  Y+@0+1,R31
	STD  Y+@0+2,R22
	STD  Y+@0+3,R23
	.ENDM

	.MACRO __PUTD2S
	STD  Y+@0,R26
	STD  Y+@0+1,R27
	STD  Y+@0+2,R24
	STD  Y+@0+3,R25
	.ENDM

	.MACRO __PUTDZ2
	STD  Z+@0,R26
	STD  Z+@0+1,R27
	STD  Z+@0+2,R24
	STD  Z+@0+3,R25
	.ENDM

	.MACRO __CLRD1S
	STD  Y+@0,R30
	STD  Y+@0+1,R30
	STD  Y+@0+2,R30
	STD  Y+@0+3,R30
	.ENDM

	.MACRO __POINTB1MN
	LDI  R30,LOW(@0+(@1))
	.ENDM

	.MACRO __POINTW1MN
	LDI  R30,LOW(@0+(@1))
	LDI  R31,HIGH(@0+(@1))
	.ENDM

	.MACRO __POINTD1M
	LDI  R30,LOW(@0)
	LDI  R31,HIGH(@0)
	LDI  R22,BYTE3(@0)
	LDI  R23,BYTE4(@0)
	.ENDM

	.MACRO __POINTW1FN
	LDI  R30,LOW(2*@0+(@1))
	LDI  R31,HIGH(2*@0+(@1))
	.ENDM

	.MACRO __POINTD1FN
	LDI  R30,LOW(2*@0+(@1))
	LDI  R31,HIGH(2*@0+(@1))
	LDI  R22,BYTE3(2*@0+(@1))
	LDI  R23,BYTE4(2*@0+(@1))
	.ENDM

	.MACRO __POINTB2MN
	LDI  R26,LOW(@0+(@1))
	.ENDM

	.MACRO __POINTW2MN
	LDI  R26,LOW(@0+(@1))
	LDI  R27,HIGH(@0+(@1))
	.ENDM

	.MACRO __POINTW2FN
	LDI  R26,LOW(2*@0+(@1))
	LDI  R27,HIGH(2*@0+(@1))
	.ENDM

	.MACRO __POINTD2FN
	LDI  R26,LOW(2*@0+(@1))
	LDI  R27,HIGH(2*@0+(@1))
	LDI  R24,BYTE3(2*@0+(@1))
	LDI  R25,BYTE4(2*@0+(@1))
	.ENDM

	.MACRO __POINTBRM
	LDI  R@0,LOW(@1)
	.ENDM

	.MACRO __POINTWRM
	LDI  R@0,LOW(@2)
	LDI  R@1,HIGH(@2)
	.ENDM

	.MACRO __POINTBRMN
	LDI  R@0,LOW(@1+(@2))
	.ENDM

	.MACRO __POINTWRMN
	LDI  R@0,LOW(@2+(@3))
	LDI  R@1,HIGH(@2+(@3))
	.ENDM

	.MACRO __POINTWRFN
	LDI  R@0,LOW(@2*2+(@3))
	LDI  R@1,HIGH(@2*2+(@3))
	.ENDM

	.MACRO __GETD1N
	LDI  R30,LOW(@0)
	LDI  R31,HIGH(@0)
	LDI  R22,BYTE3(@0)
	LDI  R23,BYTE4(@0)
	.ENDM

	.MACRO __GETD2N
	LDI  R26,LOW(@0)
	LDI  R27,HIGH(@0)
	LDI  R24,BYTE3(@0)
	LDI  R25,BYTE4(@0)
	.ENDM

	.MACRO __GETB1MN
	LDS  R30,@0+(@1)
	.ENDM

	.MACRO __GETB1HMN
	LDS  R31,@0+(@1)
	.ENDM

	.MACRO __GETW1MN
	LDS  R30,@0+(@1)
	LDS  R31,@0+(@1)+1
	.ENDM

	.MACRO __GETD1MN
	LDS  R30,@0+(@1)
	LDS  R31,@0+(@1)+1
	LDS  R22,@0+(@1)+2
	LDS  R23,@0+(@1)+3
	.ENDM

	.MACRO __GETBRMN
	LDS  R@0,@1+(@2)
	.ENDM

	.MACRO __GETWRMN
	LDS  R@0,@2+(@3)
	LDS  R@1,@2+(@3)+1
	.ENDM

	.MACRO __GETWRZ
	LDD  R@0,Z+@2
	LDD  R@1,Z+@2+1
	.ENDM

	.MACRO __GETD2Z
	LDD  R26,Z+@0
	LDD  R27,Z+@0+1
	LDD  R24,Z+@0+2
	LDD  R25,Z+@0+3
	.ENDM

	.MACRO __GETB2MN
	LDS  R26,@0+(@1)
	.ENDM

	.MACRO __GETW2MN
	LDS  R26,@0+(@1)
	LDS  R27,@0+(@1)+1
	.ENDM

	.MACRO __GETD2MN
	LDS  R26,@0+(@1)
	LDS  R27,@0+(@1)+1
	LDS  R24,@0+(@1)+2
	LDS  R25,@0+(@1)+3
	.ENDM

	.MACRO __PUTB1MN
	STS  @0+(@1),R30
	.ENDM

	.MACRO __PUTW1MN
	STS  @0+(@1),R30
	STS  @0+(@1)+1,R31
	.ENDM

	.MACRO __PUTD1MN
	STS  @0+(@1),R30
	STS  @0+(@1)+1,R31
	STS  @0+(@1)+2,R22
	STS  @0+(@1)+3,R23
	.ENDM

	.MACRO __PUTB1EN
	LDI  R26,LOW(@0+(@1))
	LDI  R27,HIGH(@0+(@1))
	CALL __EEPROMWRB
	.ENDM

	.MACRO __PUTW1EN
	LDI  R26,LOW(@0+(@1))
	LDI  R27,HIGH(@0+(@1))
	CALL __EEPROMWRW
	.ENDM

	.MACRO __PUTD1EN
	LDI  R26,LOW(@0+(@1))
	LDI  R27,HIGH(@0+(@1))
	CALL __EEPROMWRD
	.ENDM

	.MACRO __PUTBR0MN
	STS  @0+(@1),R0
	.ENDM

	.MACRO __PUTBMRN
	STS  @0+(@1),R@2
	.ENDM

	.MACRO __PUTWMRN
	STS  @0+(@1),R@2
	STS  @0+(@1)+1,R@3
	.ENDM

	.MACRO __PUTBZR
	STD  Z+@1,R@0
	.ENDM

	.MACRO __PUTWZR
	STD  Z+@2,R@0
	STD  Z+@2+1,R@1
	.ENDM

	.MACRO __GETW1R
	MOV  R30,R@0
	MOV  R31,R@1
	.ENDM

	.MACRO __GETW2R
	MOV  R26,R@0
	MOV  R27,R@1
	.ENDM

	.MACRO __GETWRN
	LDI  R@0,LOW(@2)
	LDI  R@1,HIGH(@2)
	.ENDM

	.MACRO __PUTW1R
	MOV  R@0,R30
	MOV  R@1,R31
	.ENDM

	.MACRO __PUTW2R
	MOV  R@0,R26
	MOV  R@1,R27
	.ENDM

	.MACRO __ADDWRN
	SUBI R@0,LOW(-@2)
	SBCI R@1,HIGH(-@2)
	.ENDM

	.MACRO __ADDWRR
	ADD  R@0,R@2
	ADC  R@1,R@3
	.ENDM

	.MACRO __SUBWRN
	SUBI R@0,LOW(@2)
	SBCI R@1,HIGH(@2)
	.ENDM

	.MACRO __SUBWRR
	SUB  R@0,R@2
	SBC  R@1,R@3
	.ENDM

	.MACRO __ANDWRN
	ANDI R@0,LOW(@2)
	ANDI R@1,HIGH(@2)
	.ENDM

	.MACRO __ANDWRR
	AND  R@0,R@2
	AND  R@1,R@3
	.ENDM

	.MACRO __ORWRN
	ORI  R@0,LOW(@2)
	ORI  R@1,HIGH(@2)
	.ENDM

	.MACRO __ORWRR
	OR   R@0,R@2
	OR   R@1,R@3
	.ENDM

	.MACRO __EORWRR
	EOR  R@0,R@2
	EOR  R@1,R@3
	.ENDM

	.MACRO __GETWRS
	LDD  R@0,Y+@2
	LDD  R@1,Y+@2+1
	.ENDM

	.MACRO __PUTBSR
	STD  Y+@1,R@0
	.ENDM

	.MACRO __PUTWSR
	STD  Y+@2,R@0
	STD  Y+@2+1,R@1
	.ENDM

	.MACRO __MOVEWRR
	MOV  R@0,R@2
	MOV  R@1,R@3
	.ENDM

	.MACRO __INWR
	IN   R@0,@2
	IN   R@1,@2+1
	.ENDM

	.MACRO __OUTWR
	OUT  @2+1,R@1
	OUT  @2,R@0
	.ENDM

	.MACRO __CALL1MN
	LDS  R30,@0+(@1)
	LDS  R31,@0+(@1)+1
	ICALL
	.ENDM

	.MACRO __CALL1FN
	LDI  R30,LOW(2*@0+(@1))
	LDI  R31,HIGH(2*@0+(@1))
	CALL __GETW1PF
	ICALL
	.ENDM

	.MACRO __CALL2EN
	PUSH R26
	PUSH R27
	LDI  R26,LOW(@0+(@1))
	LDI  R27,HIGH(@0+(@1))
	CALL __EEPROMRDW
	POP  R27
	POP  R26
	ICALL
	.ENDM

	.MACRO __CALL2EX
	SUBI R26,LOW(-@0)
	SBCI R27,HIGH(-@0)
	CALL __EEPROMRDD
	ICALL
	.ENDM

	.MACRO __GETW1STACK
	IN   R30,SPL
	IN   R31,SPH
	ADIW R30,@0+1
	LD   R0,Z+
	LD   R31,Z
	MOV  R30,R0
	.ENDM

	.MACRO __GETD1STACK
	IN   R30,SPL
	IN   R31,SPH
	ADIW R30,@0+1
	LD   R0,Z+
	LD   R1,Z+
	LD   R22,Z
	MOVW R30,R0
	.ENDM

	.MACRO __NBST
	BST  R@0,@1
	IN   R30,SREG
	LDI  R31,0x40
	EOR  R30,R31
	OUT  SREG,R30
	.ENDM


	.MACRO __PUTB1SN
	LDD  R26,Y+@0
	LDD  R27,Y+@0+1
	SUBI R26,LOW(-@1)
	SBCI R27,HIGH(-@1)
	ST   X,R30
	.ENDM

	.MACRO __PUTW1SN
	LDD  R26,Y+@0
	LDD  R27,Y+@0+1
	SUBI R26,LOW(-@1)
	SBCI R27,HIGH(-@1)
	ST   X+,R30
	ST   X,R31
	.ENDM

	.MACRO __PUTD1SN
	LDD  R26,Y+@0
	LDD  R27,Y+@0+1
	SUBI R26,LOW(-@1)
	SBCI R27,HIGH(-@1)
	CALL __PUTDP1
	.ENDM

	.MACRO __PUTB1SNS
	LDD  R26,Y+@0
	LDD  R27,Y+@0+1
	ADIW R26,@1
	ST   X,R30
	.ENDM

	.MACRO __PUTW1SNS
	LDD  R26,Y+@0
	LDD  R27,Y+@0+1
	ADIW R26,@1
	ST   X+,R30
	ST   X,R31
	.ENDM

	.MACRO __PUTD1SNS
	LDD  R26,Y+@0
	LDD  R27,Y+@0+1
	ADIW R26,@1
	CALL __PUTDP1
	.ENDM

	.MACRO __PUTB1PMN
	LDS  R26,@0
	LDS  R27,@0+1
	SUBI R26,LOW(-@1)
	SBCI R27,HIGH(-@1)
	ST   X,R30
	.ENDM

	.MACRO __PUTW1PMN
	LDS  R26,@0
	LDS  R27,@0+1
	SUBI R26,LOW(-@1)
	SBCI R27,HIGH(-@1)
	ST   X+,R30
	ST   X,R31
	.ENDM

	.MACRO __PUTD1PMN
	LDS  R26,@0
	LDS  R27,@0+1
	SUBI R26,LOW(-@1)
	SBCI R27,HIGH(-@1)
	CALL __PUTDP1
	.ENDM

	.MACRO __PUTB1PMNS
	LDS  R26,@0
	LDS  R27,@0+1
	ADIW R26,@1
	ST   X,R30
	.ENDM

	.MACRO __PUTW1PMNS
	LDS  R26,@0
	LDS  R27,@0+1
	ADIW R26,@1
	ST   X+,R30
	ST   X,R31
	.ENDM

	.MACRO __PUTD1PMNS
	LDS  R26,@0
	LDS  R27,@0+1
	ADIW R26,@1
	CALL __PUTDP1
	.ENDM

	.MACRO __PUTB1RN
	MOVW R26,R@0
	SUBI R26,LOW(-@1)
	SBCI R27,HIGH(-@1)
	ST   X,R30
	.ENDM

	.MACRO __PUTW1RN
	MOVW R26,R@0
	SUBI R26,LOW(-@1)
	SBCI R27,HIGH(-@1)
	ST   X+,R30
	ST   X,R31
	.ENDM

	.MACRO __PUTD1RN
	MOVW R26,R@0
	SUBI R26,LOW(-@1)
	SBCI R27,HIGH(-@1)
	CALL __PUTDP1
	.ENDM

	.MACRO __PUTB1RNS
	MOVW R26,R@0
	ADIW R26,@1
	ST   X,R30
	.ENDM

	.MACRO __PUTW1RNS
	MOVW R26,R@0
	ADIW R26,@1
	ST   X+,R30
	ST   X,R31
	.ENDM

	.MACRO __PUTD1RNS
	MOVW R26,R@0
	ADIW R26,@1
	CALL __PUTDP1
	.ENDM

	.MACRO __PUTB1RON
	MOV  R26,R@0
	MOV  R27,R@1
	SUBI R26,LOW(-@2)
	SBCI R27,HIGH(-@2)
	ST   X,R30
	.ENDM

	.MACRO __PUTW1RON
	MOV  R26,R@0
	MOV  R27,R@1
	SUBI R26,LOW(-@2)
	SBCI R27,HIGH(-@2)
	ST   X+,R30
	ST   X,R31
	.ENDM

	.MACRO __PUTD1RON
	MOV  R26,R@0
	MOV  R27,R@1
	SUBI R26,LOW(-@2)
	SBCI R27,HIGH(-@2)
	CALL __PUTDP1
	.ENDM

	.MACRO __PUTB1RONS
	MOV  R26,R@0
	MOV  R27,R@1
	ADIW R26,@2
	ST   X,R30
	.ENDM

	.MACRO __PUTW1RONS
	MOV  R26,R@0
	MOV  R27,R@1
	ADIW R26,@2
	ST   X+,R30
	ST   X,R31
	.ENDM

	.MACRO __PUTD1RONS
	MOV  R26,R@0
	MOV  R27,R@1
	ADIW R26,@2
	CALL __PUTDP1
	.ENDM


	.MACRO __GETB1SX
	MOVW R30,R28
	SUBI R30,LOW(-@0)
	SBCI R31,HIGH(-@0)
	LD   R30,Z
	.ENDM

	.MACRO __GETB1HSX
	MOVW R30,R28
	SUBI R30,LOW(-@0)
	SBCI R31,HIGH(-@0)
	LD   R31,Z
	.ENDM

	.MACRO __GETW1SX
	MOVW R30,R28
	SUBI R30,LOW(-@0)
	SBCI R31,HIGH(-@0)
	LD   R0,Z+
	LD   R31,Z
	MOV  R30,R0
	.ENDM

	.MACRO __GETD1SX
	MOVW R30,R28
	SUBI R30,LOW(-@0)
	SBCI R31,HIGH(-@0)
	LD   R0,Z+
	LD   R1,Z+
	LD   R22,Z+
	LD   R23,Z
	MOVW R30,R0
	.ENDM

	.MACRO __GETB2SX
	MOVW R26,R28
	SUBI R26,LOW(-@0)
	SBCI R27,HIGH(-@0)
	LD   R26,X
	.ENDM

	.MACRO __GETW2SX
	MOVW R26,R28
	SUBI R26,LOW(-@0)
	SBCI R27,HIGH(-@0)
	LD   R0,X+
	LD   R27,X
	MOV  R26,R0
	.ENDM

	.MACRO __GETD2SX
	MOVW R26,R28
	SUBI R26,LOW(-@0)
	SBCI R27,HIGH(-@0)
	LD   R0,X+
	LD   R1,X+
	LD   R24,X+
	LD   R25,X
	MOVW R26,R0
	.ENDM

	.MACRO __GETBRSX
	MOVW R30,R28
	SUBI R30,LOW(-@1)
	SBCI R31,HIGH(-@1)
	LD   R@0,Z
	.ENDM

	.MACRO __GETWRSX
	MOVW R30,R28
	SUBI R30,LOW(-@2)
	SBCI R31,HIGH(-@2)
	LD   R@0,Z+
	LD   R@1,Z
	.ENDM

	.MACRO __GETBRSX2
	MOVW R26,R28
	SUBI R26,LOW(-@1)
	SBCI R27,HIGH(-@1)
	LD   R@0,X
	.ENDM

	.MACRO __GETWRSX2
	MOVW R26,R28
	SUBI R26,LOW(-@2)
	SBCI R27,HIGH(-@2)
	LD   R@0,X+
	LD   R@1,X
	.ENDM

	.MACRO __LSLW8SX
	MOVW R30,R28
	SUBI R30,LOW(-@0)
	SBCI R31,HIGH(-@0)
	LD   R31,Z
	CLR  R30
	.ENDM

	.MACRO __PUTB1SX
	MOVW R26,R28
	SUBI R26,LOW(-@0)
	SBCI R27,HIGH(-@0)
	ST   X,R30
	.ENDM

	.MACRO __PUTW1SX
	MOVW R26,R28
	SUBI R26,LOW(-@0)
	SBCI R27,HIGH(-@0)
	ST   X+,R30
	ST   X,R31
	.ENDM

	.MACRO __PUTD1SX
	MOVW R26,R28
	SUBI R26,LOW(-@0)
	SBCI R27,HIGH(-@0)
	ST   X+,R30
	ST   X+,R31
	ST   X+,R22
	ST   X,R23
	.ENDM

	.MACRO __CLRW1SX
	MOVW R26,R28
	SUBI R26,LOW(-@0)
	SBCI R27,HIGH(-@0)
	ST   X+,R30
	ST   X,R30
	.ENDM

	.MACRO __CLRD1SX
	MOVW R26,R28
	SUBI R26,LOW(-@0)
	SBCI R27,HIGH(-@0)
	ST   X+,R30
	ST   X+,R30
	ST   X+,R30
	ST   X,R30
	.ENDM

	.MACRO __PUTB2SX
	MOVW R30,R28
	SUBI R30,LOW(-@0)
	SBCI R31,HIGH(-@0)
	ST   Z,R26
	.ENDM

	.MACRO __PUTW2SX
	MOVW R30,R28
	SUBI R30,LOW(-@0)
	SBCI R31,HIGH(-@0)
	ST   Z+,R26
	ST   Z,R27
	.ENDM

	.MACRO __PUTD2SX
	MOVW R30,R28
	SUBI R30,LOW(-@0)
	SBCI R31,HIGH(-@0)
	ST   Z+,R26
	ST   Z+,R27
	ST   Z+,R24
	ST   Z,R25
	.ENDM

	.MACRO __PUTBSRX
	MOVW R30,R28
	SUBI R30,LOW(-@1)
	SBCI R31,HIGH(-@1)
	ST   Z,R@0
	.ENDM

	.MACRO __PUTWSRX
	MOVW R30,R28
	SUBI R30,LOW(-@2)
	SBCI R31,HIGH(-@2)
	ST   Z+,R@0
	ST   Z,R@1
	.ENDM

	.MACRO __PUTB1SNX
	MOVW R26,R28
	SUBI R26,LOW(-@0)
	SBCI R27,HIGH(-@0)
	LD   R0,X+
	LD   R27,X
	MOV  R26,R0
	SUBI R26,LOW(-@1)
	SBCI R27,HIGH(-@1)
	ST   X,R30
	.ENDM

	.MACRO __PUTW1SNX
	MOVW R26,R28
	SUBI R26,LOW(-@0)
	SBCI R27,HIGH(-@0)
	LD   R0,X+
	LD   R27,X
	MOV  R26,R0
	SUBI R26,LOW(-@1)
	SBCI R27,HIGH(-@1)
	ST   X+,R30
	ST   X,R31
	.ENDM

	.MACRO __PUTD1SNX
	MOVW R26,R28
	SUBI R26,LOW(-@0)
	SBCI R27,HIGH(-@0)
	LD   R0,X+
	LD   R27,X
	MOV  R26,R0
	SUBI R26,LOW(-@1)
	SBCI R27,HIGH(-@1)
	ST   X+,R30
	ST   X+,R31
	ST   X+,R22
	ST   X,R23
	.ENDM

	.MACRO __MULBRR
	MULS R@0,R@1
	MOVW R30,R0
	.ENDM

	.MACRO __MULBRRU
	MUL  R@0,R@1
	MOVW R30,R0
	.ENDM

	.MACRO __MULBRR0
	MULS R@0,R@1
	.ENDM

	.MACRO __MULBRRU0
	MUL  R@0,R@1
	.ENDM

	.MACRO __MULBNWRU
	LDI  R26,@2
	MUL  R26,R@0
	MOVW R30,R0
	MUL  R26,R@1
	ADD  R31,R0
	.ENDM

	.CSEG
	.ORG 0x00

;START OF CODE MARKER
__START_OF_CODE:

;INTERRUPT VECTORS
	JMP  __RESET
	JMP  0x00
	JMP  0x00
	JMP  0x00
	JMP  0x00
	JMP  0x00
	JMP  0x00
	JMP  0x00
	JMP  0x00
	JMP  0x00
	JMP  0x00
	JMP  0x00
	JMP  0x00
	JMP  0x00
	JMP  _adc_isr
	JMP  0x00
	JMP  0x00
	JMP  0x00
	JMP  0x00
	JMP  0x00
	JMP  0x00

_0x0:
	.DB  0x40,0x25,0x32,0x2E,0x32,0x66,0x23,0x0
	.DB  0x41,0x25,0x32,0x2E,0x32,0x66,0x23,0x0
	.DB  0x44,0x25,0x32,0x2E,0x32,0x66,0x23,0x0
	.DB  0x40,0x30,0x25,0x32,0x2E,0x32,0x66,0x23
	.DB  0x0,0x41,0x54,0x2B,0x43,0x30,0x32,0x31
	.DB  0x0
_0x2000000:
	.DB  0x2D,0x4E,0x41,0x4E,0x0
_0x2080060:
	.DB  0x1
_0x2080000:
	.DB  0x2D,0x4E,0x41,0x4E,0x0,0x49,0x4E,0x46
	.DB  0x0

__GLOBAL_INI_TBL:
	.DW  0x08
	.DW  _0x1F
	.DW  _0x0*2+33

	.DW  0x01
	.DW  __seed_G104
	.DW  _0x2080060*2

_0xFFFFFFFF:
	.DW  0

#define __GLOBAL_INI_TBL_PRESENT 1

__RESET:
	CLI
	CLR  R30
	OUT  EECR,R30

;INTERRUPT VECTORS ARE PLACED
;AT THE START OF FLASH
	LDI  R31,1
	OUT  GICR,R31
	OUT  GICR,R30
	OUT  MCUCR,R30

;CLEAR R2-R14
	LDI  R24,(14-2)+1
	LDI  R26,2
	CLR  R27
__CLEAR_REG:
	ST   X+,R30
	DEC  R24
	BRNE __CLEAR_REG

;CLEAR SRAM
	LDI  R24,LOW(__CLEAR_SRAM_SIZE)
	LDI  R25,HIGH(__CLEAR_SRAM_SIZE)
	LDI  R26,__SRAM_START
__CLEAR_SRAM:
	ST   X+,R30
	SBIW R24,1
	BRNE __CLEAR_SRAM

;GLOBAL VARIABLES INITIALIZATION
	LDI  R30,LOW(__GLOBAL_INI_TBL*2)
	LDI  R31,HIGH(__GLOBAL_INI_TBL*2)
__GLOBAL_INI_NEXT:
	LPM  R24,Z+
	LPM  R25,Z+
	SBIW R24,0
	BREQ __GLOBAL_INI_END
	LPM  R26,Z+
	LPM  R27,Z+
	LPM  R0,Z+
	LPM  R1,Z+
	MOVW R22,R30
	MOVW R30,R0
__GLOBAL_INI_LOOP:
	LPM  R0,Z+
	ST   X+,R0
	SBIW R24,1
	BRNE __GLOBAL_INI_LOOP
	MOVW R30,R22
	RJMP __GLOBAL_INI_NEXT
__GLOBAL_INI_END:

;HARDWARE STACK POINTER INITIALIZATION
	LDI  R30,LOW(__SRAM_END-__HEAP_SIZE)
	OUT  SPL,R30
	LDI  R30,HIGH(__SRAM_END-__HEAP_SIZE)
	OUT  SPH,R30

;DATA STACK POINTER INITIALIZATION
	LDI  R28,LOW(__SRAM_START+__DSTACK_SIZE)
	LDI  R29,HIGH(__SRAM_START+__DSTACK_SIZE)

	JMP  _main

	.ESEG
	.ORG 0

	.DSEG
	.ORG 0x160

	.CSEG
;/*******************************************************
;This program was created by the
;CodeWizardAVR V3.12 Advanced
;Automatic Program Generator
;© Copyright 1998-2014 Pavel Haiduc, HP InfoTech s.r.l.
;http://www.hpinfotech.com
;
;Project :
;Version :
;Date    : 12/29/2019
;Author  :  mehran tamjidi
;Company :
;Comments:
;
;
;Chip type               : ATmega16A
;Program type            : Application
;AVR Core Clock frequency: 4.000000 MHz
;Memory model            : Small
;External RAM size       : 0
;Data Stack size         : 256
;*******************************************************/
;
;#include <mega16a.h>
	#ifndef __SLEEP_DEFINED__
	#define __SLEEP_DEFINED__
	.EQU __se_bit=0x40
	.EQU __sm_mask=0xB0
	.EQU __sm_powerdown=0x20
	.EQU __sm_powersave=0x30
	.EQU __sm_standby=0xA0
	.EQU __sm_ext_standby=0xB0
	.EQU __sm_adc_noise_red=0x10
	.SET power_ctrl_reg=mcucr
	#endif
;#include <delay.h>
;#include <stdio.h>
;//_________________________________________
;interrupt [ADC_INT] void adc_isr(){
; 0000 001C interrupt [15] void adc_isr(){

	.CSEG
_adc_isr:
; .FSTART _adc_isr
	ST   -Y,R0
	ST   -Y,R1
	ST   -Y,R15
	ST   -Y,R22
	ST   -Y,R23
	ST   -Y,R24
	ST   -Y,R25
	ST   -Y,R26
	ST   -Y,R27
	ST   -Y,R30
	ST   -Y,R31
	IN   R30,SREG
	ST   -Y,R30
; 0000 001D unsigned int adc_data;
; 0000 001E float   volt;
; 0000 001F adc_data=ADCH;
	SBIW R28,4
	ST   -Y,R17
	ST   -Y,R16
;	adc_data -> R16,R17
;	volt -> Y+2
	IN   R16,5
	CLR  R17
; 0000 0020 volt=adc_data*2.56/255;
	MOVW R30,R16
	CLR  R22
	CLR  R23
	CALL __CDF1
	__GETD2N 0x4023D70A
	CALL __MULF12
	MOVW R26,R30
	MOVW R24,R22
	__GETD1N 0x437F0000
	CALL __DIVF21
	CALL SUBOPT_0x0
; 0000 0021 volt=volt*100;
	__GETD1N 0x42C80000
	CALL __MULF12
	CALL SUBOPT_0x0
; 0000 0022 if(volt>=10&& volt<40){ printf("@%2.2f#",volt); PORTB.3=0;}
	CALL SUBOPT_0x1
	CALL __CMPF12
	BRLO _0x4
	CALL SUBOPT_0x2
	BRLO _0x5
_0x4:
	RJMP _0x3
_0x5:
	__POINTW1FN _0x0,0
	RJMP _0x26
; 0000 0023 else if(volt>40 && volt<55 ){ printf("@%2.2f#",volt);PORTB.3=1; }
_0x3:
	CALL SUBOPT_0x2
	BREQ PC+2
	BRCC PC+2
	RJMP _0xA
	CALL SUBOPT_0x3
	BRLO _0xB
_0xA:
	RJMP _0x9
_0xB:
	__POINTW1FN _0x0,0
	CALL SUBOPT_0x4
; 0000 0024 else if( volt>55 && volt<60 ){ printf("A%2.2f#",volt) ;PORTB.3=1; }
	RJMP _0xE
_0x9:
	CALL SUBOPT_0x3
	BREQ PC+2
	BRCC PC+2
	RJMP _0x10
	CALL SUBOPT_0x5
	BRLO _0x11
_0x10:
	RJMP _0xF
_0x11:
	__POINTW1FN _0x0,8
	CALL SUBOPT_0x4
; 0000 0025 else if( volt>60 && volt<90 ){ printf("D%2.2f#",volt) ;PORTB.3=1; }
	RJMP _0x14
_0xF:
	CALL SUBOPT_0x5
	BREQ PC+2
	BRCC PC+2
	RJMP _0x16
	CALL SUBOPT_0x6
	__GETD1N 0x42B40000
	CALL __CMPF12
	BRLO _0x17
_0x16:
	RJMP _0x15
_0x17:
	__POINTW1FN _0x0,16
	CALL SUBOPT_0x4
; 0000 0026 else  {printf("@0%2.2f#",volt);   PORTB.3=0;}
	RJMP _0x1A
_0x15:
	__POINTW1FN _0x0,24
_0x26:
	ST   -Y,R31
	ST   -Y,R30
	CALL SUBOPT_0x7
	CALL __PUTPARD1
	LDI  R24,4
	CALL _printf
	ADIW R28,6
	CBI  0x18,3
_0x1A:
_0x14:
_0xE:
; 0000 0027 delay_ms(250);
	LDI  R26,LOW(250)
	LDI  R27,0
	CALL _delay_ms
; 0000 0028 ADCSRA=0XCF;
	LDI  R30,LOW(207)
	OUT  0x6,R30
; 0000 0029 }
	LDD  R17,Y+1
	LDD  R16,Y+0
	ADIW R28,6
	LD   R30,Y+
	OUT  SREG,R30
	LD   R31,Y+
	LD   R30,Y+
	LD   R27,Y+
	LD   R26,Y+
	LD   R25,Y+
	LD   R24,Y+
	LD   R23,Y+
	LD   R22,Y+
	LD   R15,Y+
	LD   R1,Y+
	LD   R0,Y+
	RETI
; .FEND
;//__________________________________________
;void main(){
; 0000 002B void main(){
_main:
; .FSTART _main
; 0000 002C DDRD=0XFF;
	LDI  R30,LOW(255)
	OUT  0x11,R30
; 0000 002D PORTD=0X00;
	LDI  R30,LOW(0)
	OUT  0x12,R30
; 0000 002E DDRB=0XFF;
	LDI  R30,LOW(255)
	OUT  0x17,R30
; 0000 002F ADMUX=0b11100000;    //ADLAR=1   & INTERNAL BANDGAP
	LDI  R30,LOW(224)
	OUT  0x7,R30
; 0000 0030 ADCSRA=0b10001011; //ADC INTERRUPT ENABLE &PRESCALER 8 --------011
	LDI  R30,LOW(139)
	OUT  0x6,R30
; 0000 0031 ACSR=0b10000000; //analog comparator
	LDI  R30,LOW(128)
	OUT  0x8,R30
; 0000 0032 SFIOR=0X00;   // not an special trigger source
	LDI  R30,LOW(0)
	OUT  0x30,R30
; 0000 0033 
; 0000 0034 //ADMUX=0XC0;
; 0000 0035 //ADCSRA=0X8F;
; 0000 0036 // USART initialization
; 0000 0037 // Communication Parameters: 8 Data, 1 Stop, No Parity
; 0000 0038 // USART Receiver: Off
; 0000 0039 // USART Transmitter: On
; 0000 003A // USART Mode: Asynchronous
; 0000 003B // USART Baud rate: 9600
; 0000 003C UCSRA=0x00;
	OUT  0xB,R30
; 0000 003D UCSRB=0x08;
	LDI  R30,LOW(8)
	OUT  0xA,R30
; 0000 003E UCSRC=0b10001110;
	LDI  R30,LOW(142)
	OUT  0x20,R30
; 0000 003F UBRRH=0x00;
	LDI  R30,LOW(0)
	OUT  0x20,R30
; 0000 0040 UBRRL=0x19;
	LDI  R30,LOW(25)
	OUT  0x9,R30
; 0000 0041 #asm("sei")
	sei
; 0000 0042   PORTB.7=0;
	CBI  0x18,7
; 0000 0043 
; 0000 0044 puts("AT+C021") ;
	__POINTW2MN _0x1F,0
	CALL _puts
; 0000 0045 PORTB.7=1;
	SBI  0x18,7
; 0000 0046 
; 0000 0047 ADCSRA=0XCF;
	LDI  R30,LOW(207)
	OUT  0x6,R30
; 0000 0048 while(1){
_0x22:
; 0000 0049  };
	RJMP _0x22
; 0000 004A }
_0x25:
	RJMP _0x25
; .FEND

	.DSEG
_0x1F:
	.BYTE 0x8
	#ifndef __SLEEP_DEFINED__
	#define __SLEEP_DEFINED__
	.EQU __se_bit=0x40
	.EQU __sm_mask=0xB0
	.EQU __sm_powerdown=0x20
	.EQU __sm_powersave=0x30
	.EQU __sm_standby=0xA0
	.EQU __sm_ext_standby=0xB0
	.EQU __sm_adc_noise_red=0x10
	.SET power_ctrl_reg=mcucr
	#endif

	.CSEG
_putchar:
; .FSTART _putchar
	ST   -Y,R26
putchar0:
     sbis usr,udre
     rjmp putchar0
     ld   r30,y
     out  udr,r30
	ADIW R28,1
	RET
; .FEND
_puts:
; .FSTART _puts
	ST   -Y,R27
	ST   -Y,R26
	ST   -Y,R17
_0x2000003:
	LDD  R26,Y+1
	LDD  R27,Y+1+1
	LD   R30,X+
	STD  Y+1,R26
	STD  Y+1+1,R27
	MOV  R17,R30
	CPI  R30,0
	BREQ _0x2000005
	MOV  R26,R17
	RCALL _putchar
	RJMP _0x2000003
_0x2000005:
	LDI  R26,LOW(10)
	RCALL _putchar
	LDD  R17,Y+0
	RJMP _0x20A0005
; .FEND
_put_usart_G100:
; .FSTART _put_usart_G100
	ST   -Y,R27
	ST   -Y,R26
	LDD  R26,Y+2
	RCALL _putchar
	LD   R26,Y
	LDD  R27,Y+1
	LD   R30,X+
	LD   R31,X+
	ADIW R30,1
	ST   -X,R31
	ST   -X,R30
_0x20A0005:
	ADIW R28,3
	RET
; .FEND
__ftoe_G100:
; .FSTART __ftoe_G100
	CALL SUBOPT_0x8
	LDI  R30,LOW(128)
	STD  Y+2,R30
	LDI  R30,LOW(63)
	STD  Y+3,R30
	CALL __SAVELOCR4
	LDD  R30,Y+14
	LDD  R31,Y+14+1
	CPI  R30,LOW(0xFFFF)
	LDI  R26,HIGH(0xFFFF)
	CPC  R31,R26
	BRNE _0x2000019
	LDD  R30,Y+8
	LDD  R31,Y+8+1
	ST   -Y,R31
	ST   -Y,R30
	__POINTW2FN _0x2000000,0
	CALL _strcpyf
	RJMP _0x20A0004
_0x2000019:
	CPI  R30,LOW(0x7FFF)
	LDI  R26,HIGH(0x7FFF)
	CPC  R31,R26
	BRNE _0x2000018
	LDD  R30,Y+8
	LDD  R31,Y+8+1
	ST   -Y,R31
	ST   -Y,R30
	__POINTW2FN _0x2000000,1
	CALL _strcpyf
	RJMP _0x20A0004
_0x2000018:
	LDD  R26,Y+11
	CPI  R26,LOW(0x7)
	BRLO _0x200001B
	LDI  R30,LOW(6)
	STD  Y+11,R30
_0x200001B:
	LDD  R17,Y+11
_0x200001C:
	MOV  R30,R17
	SUBI R17,1
	CPI  R30,0
	BREQ _0x200001E
	CALL SUBOPT_0x9
	RJMP _0x200001C
_0x200001E:
	__GETD1S 12
	CALL __CPD10
	BRNE _0x200001F
	LDI  R19,LOW(0)
	CALL SUBOPT_0x9
	RJMP _0x2000020
_0x200001F:
	LDD  R19,Y+11
	CALL SUBOPT_0xA
	BREQ PC+2
	BRCC PC+2
	RJMP _0x2000021
	CALL SUBOPT_0x9
_0x2000022:
	CALL SUBOPT_0xA
	BRLO _0x2000024
	CALL SUBOPT_0xB
	CALL SUBOPT_0xC
	RJMP _0x2000022
_0x2000024:
	RJMP _0x2000025
_0x2000021:
_0x2000026:
	CALL SUBOPT_0xA
	BRSH _0x2000028
	CALL SUBOPT_0xB
	CALL SUBOPT_0xD
	CALL SUBOPT_0xE
	SUBI R19,LOW(1)
	RJMP _0x2000026
_0x2000028:
	CALL SUBOPT_0x9
_0x2000025:
	__GETD1S 12
	CALL SUBOPT_0xF
	CALL SUBOPT_0xE
	CALL SUBOPT_0xA
	BRLO _0x2000029
	CALL SUBOPT_0xB
	CALL SUBOPT_0xC
_0x2000029:
_0x2000020:
	LDI  R17,LOW(0)
_0x200002A:
	LDD  R30,Y+11
	CP   R30,R17
	BRLO _0x200002C
	__GETD2S 4
	CALL SUBOPT_0x10
	CALL SUBOPT_0xF
	MOVW R26,R30
	MOVW R24,R22
	CALL _floor
	__PUTD1S 4
	CALL SUBOPT_0x7
	CALL SUBOPT_0xB
	CALL __DIVF21
	CALL __CFD1U
	MOV  R16,R30
	CALL SUBOPT_0x11
	CALL SUBOPT_0x12
	CLR  R31
	CLR  R22
	CLR  R23
	CALL __CDF1
	__GETD2S 4
	CALL __MULF12
	CALL SUBOPT_0xB
	CALL SUBOPT_0x13
	CALL SUBOPT_0xE
	MOV  R30,R17
	SUBI R17,-1
	CPI  R30,0
	BRNE _0x200002A
	CALL SUBOPT_0x11
	LDI  R30,LOW(46)
	ST   X,R30
	RJMP _0x200002A
_0x200002C:
	CALL SUBOPT_0x14
	SBIW R30,1
	LDD  R26,Y+10
	STD  Z+0,R26
	CPI  R19,0
	BRGE _0x200002E
	NEG  R19
	LDD  R26,Y+8
	LDD  R27,Y+8+1
	LDI  R30,LOW(45)
	RJMP _0x2000113
_0x200002E:
	LDD  R26,Y+8
	LDD  R27,Y+8+1
	LDI  R30,LOW(43)
_0x2000113:
	ST   X,R30
	CALL SUBOPT_0x14
	CALL SUBOPT_0x14
	SBIW R30,1
	MOVW R22,R30
	MOV  R26,R19
	LDI  R30,LOW(10)
	CALL __DIVB21
	SUBI R30,-LOW(48)
	MOVW R26,R22
	ST   X,R30
	CALL SUBOPT_0x14
	SBIW R30,1
	MOVW R22,R30
	MOV  R26,R19
	LDI  R30,LOW(10)
	CALL __MODB21
	SUBI R30,-LOW(48)
	MOVW R26,R22
	ST   X,R30
	LDD  R26,Y+8
	LDD  R27,Y+8+1
	LDI  R30,LOW(0)
	ST   X,R30
_0x20A0004:
	CALL __LOADLOCR4
	ADIW R28,16
	RET
; .FEND
__print_G100:
; .FSTART __print_G100
	ST   -Y,R27
	ST   -Y,R26
	SBIW R28,63
	SBIW R28,17
	CALL __SAVELOCR6
	LDI  R17,0
	__GETW1SX 88
	STD  Y+8,R30
	STD  Y+8+1,R31
	__GETW1SX 86
	STD  Y+6,R30
	STD  Y+6+1,R31
	LDD  R26,Y+6
	LDD  R27,Y+6+1
	LDI  R30,LOW(0)
	LDI  R31,HIGH(0)
	ST   X+,R30
	ST   X,R31
_0x2000030:
	MOVW R26,R28
	SUBI R26,LOW(-(92))
	SBCI R27,HIGH(-(92))
	LD   R30,X+
	LD   R31,X+
	ADIW R30,1
	ST   -X,R31
	ST   -X,R30
	SBIW R30,1
	LPM  R30,Z
	MOV  R18,R30
	CPI  R30,0
	BRNE PC+2
	RJMP _0x2000032
	MOV  R30,R17
	CPI  R30,0
	BRNE _0x2000036
	CPI  R18,37
	BRNE _0x2000037
	LDI  R17,LOW(1)
	RJMP _0x2000038
_0x2000037:
	CALL SUBOPT_0x15
_0x2000038:
	RJMP _0x2000035
_0x2000036:
	CPI  R30,LOW(0x1)
	BRNE _0x2000039
	CPI  R18,37
	BRNE _0x200003A
	CALL SUBOPT_0x15
	RJMP _0x2000114
_0x200003A:
	LDI  R17,LOW(2)
	LDI  R30,LOW(0)
	STD  Y+21,R30
	LDI  R16,LOW(0)
	CPI  R18,45
	BRNE _0x200003B
	LDI  R16,LOW(1)
	RJMP _0x2000035
_0x200003B:
	CPI  R18,43
	BRNE _0x200003C
	LDI  R30,LOW(43)
	STD  Y+21,R30
	RJMP _0x2000035
_0x200003C:
	CPI  R18,32
	BRNE _0x200003D
	LDI  R30,LOW(32)
	STD  Y+21,R30
	RJMP _0x2000035
_0x200003D:
	RJMP _0x200003E
_0x2000039:
	CPI  R30,LOW(0x2)
	BRNE _0x200003F
_0x200003E:
	LDI  R21,LOW(0)
	LDI  R17,LOW(3)
	CPI  R18,48
	BRNE _0x2000040
	ORI  R16,LOW(128)
	RJMP _0x2000035
_0x2000040:
	RJMP _0x2000041
_0x200003F:
	CPI  R30,LOW(0x3)
	BRNE _0x2000042
_0x2000041:
	CPI  R18,48
	BRLO _0x2000044
	CPI  R18,58
	BRLO _0x2000045
_0x2000044:
	RJMP _0x2000043
_0x2000045:
	LDI  R26,LOW(10)
	MUL  R21,R26
	MOV  R21,R0
	MOV  R30,R18
	SUBI R30,LOW(48)
	ADD  R21,R30
	RJMP _0x2000035
_0x2000043:
	LDI  R20,LOW(0)
	CPI  R18,46
	BRNE _0x2000046
	LDI  R17,LOW(4)
	RJMP _0x2000035
_0x2000046:
	RJMP _0x2000047
_0x2000042:
	CPI  R30,LOW(0x4)
	BRNE _0x2000049
	CPI  R18,48
	BRLO _0x200004B
	CPI  R18,58
	BRLO _0x200004C
_0x200004B:
	RJMP _0x200004A
_0x200004C:
	ORI  R16,LOW(32)
	LDI  R26,LOW(10)
	MUL  R20,R26
	MOV  R20,R0
	MOV  R30,R18
	SUBI R30,LOW(48)
	ADD  R20,R30
	RJMP _0x2000035
_0x200004A:
_0x2000047:
	CPI  R18,108
	BRNE _0x200004D
	ORI  R16,LOW(2)
	LDI  R17,LOW(5)
	RJMP _0x2000035
_0x200004D:
	RJMP _0x200004E
_0x2000049:
	CPI  R30,LOW(0x5)
	BREQ PC+2
	RJMP _0x2000035
_0x200004E:
	MOV  R30,R18
	CPI  R30,LOW(0x63)
	BRNE _0x2000053
	CALL SUBOPT_0x16
	CALL SUBOPT_0x17
	CALL SUBOPT_0x16
	LDD  R26,Z+4
	ST   -Y,R26
	CALL SUBOPT_0x18
	RJMP _0x2000054
_0x2000053:
	CPI  R30,LOW(0x45)
	BREQ _0x2000057
	CPI  R30,LOW(0x65)
	BRNE _0x2000058
_0x2000057:
	RJMP _0x2000059
_0x2000058:
	CPI  R30,LOW(0x66)
	BREQ PC+2
	RJMP _0x200005A
_0x2000059:
	MOVW R30,R28
	ADIW R30,22
	STD  Y+14,R30
	STD  Y+14+1,R31
	CALL SUBOPT_0x19
	CALL __GETD1P
	CALL SUBOPT_0x1A
	CALL SUBOPT_0x1B
	LDD  R26,Y+13
	TST  R26
	BRMI _0x200005B
	LDD  R26,Y+21
	CPI  R26,LOW(0x2B)
	BREQ _0x200005D
	CPI  R26,LOW(0x20)
	BREQ _0x200005F
	RJMP _0x2000060
_0x200005B:
	CALL SUBOPT_0x1C
	CALL __ANEGF1
	CALL SUBOPT_0x1A
	LDI  R30,LOW(45)
	STD  Y+21,R30
_0x200005D:
	SBRS R16,7
	RJMP _0x2000061
	LDD  R30,Y+21
	ST   -Y,R30
	CALL SUBOPT_0x18
	RJMP _0x2000062
_0x2000061:
_0x200005F:
	LDD  R30,Y+14
	LDD  R31,Y+14+1
	ADIW R30,1
	STD  Y+14,R30
	STD  Y+14+1,R31
	SBIW R30,1
	LDD  R26,Y+21
	STD  Z+0,R26
_0x2000062:
_0x2000060:
	SBRS R16,5
	LDI  R20,LOW(6)
	CPI  R18,102
	BRNE _0x2000064
	CALL SUBOPT_0x1C
	CALL __PUTPARD1
	ST   -Y,R20
	LDD  R26,Y+19
	LDD  R27,Y+19+1
	CALL _ftoa
	RJMP _0x2000065
_0x2000064:
	CALL SUBOPT_0x1C
	CALL __PUTPARD1
	ST   -Y,R20
	ST   -Y,R18
	LDD  R26,Y+20
	LDD  R27,Y+20+1
	RCALL __ftoe_G100
_0x2000065:
	MOVW R30,R28
	ADIW R30,22
	CALL SUBOPT_0x1D
	RJMP _0x2000066
_0x200005A:
	CPI  R30,LOW(0x73)
	BRNE _0x2000068
	CALL SUBOPT_0x1B
	CALL SUBOPT_0x1E
	CALL SUBOPT_0x1D
	RJMP _0x2000069
_0x2000068:
	CPI  R30,LOW(0x70)
	BRNE _0x200006B
	CALL SUBOPT_0x1B
	CALL SUBOPT_0x1E
	STD  Y+14,R30
	STD  Y+14+1,R31
	LDD  R26,Y+14
	LDD  R27,Y+14+1
	CALL _strlenf
	MOV  R17,R30
	ORI  R16,LOW(8)
_0x2000069:
	ANDI R16,LOW(127)
	CPI  R20,0
	BREQ _0x200006D
	CP   R20,R17
	BRLO _0x200006E
_0x200006D:
	RJMP _0x200006C
_0x200006E:
	MOV  R17,R20
_0x200006C:
_0x2000066:
	LDI  R20,LOW(0)
	LDI  R30,LOW(0)
	STD  Y+20,R30
	LDI  R19,LOW(0)
	RJMP _0x200006F
_0x200006B:
	CPI  R30,LOW(0x64)
	BREQ _0x2000072
	CPI  R30,LOW(0x69)
	BRNE _0x2000073
_0x2000072:
	ORI  R16,LOW(4)
	RJMP _0x2000074
_0x2000073:
	CPI  R30,LOW(0x75)
	BRNE _0x2000075
_0x2000074:
	LDI  R30,LOW(10)
	STD  Y+20,R30
	SBRS R16,1
	RJMP _0x2000076
	__GETD1N 0x3B9ACA00
	CALL SUBOPT_0x1F
	LDI  R17,LOW(10)
	RJMP _0x2000077
_0x2000076:
	__GETD1N 0x2710
	CALL SUBOPT_0x1F
	LDI  R17,LOW(5)
	RJMP _0x2000077
_0x2000075:
	CPI  R30,LOW(0x58)
	BRNE _0x2000079
	ORI  R16,LOW(8)
	RJMP _0x200007A
_0x2000079:
	CPI  R30,LOW(0x78)
	BREQ PC+2
	RJMP _0x20000B8
_0x200007A:
	LDI  R30,LOW(16)
	STD  Y+20,R30
	SBRS R16,1
	RJMP _0x200007C
	__GETD1N 0x10000000
	CALL SUBOPT_0x1F
	LDI  R17,LOW(8)
	RJMP _0x2000077
_0x200007C:
	__GETD1N 0x1000
	CALL SUBOPT_0x1F
	LDI  R17,LOW(4)
_0x2000077:
	CPI  R20,0
	BREQ _0x200007D
	ANDI R16,LOW(127)
	RJMP _0x200007E
_0x200007D:
	LDI  R20,LOW(1)
_0x200007E:
	SBRS R16,1
	RJMP _0x200007F
	CALL SUBOPT_0x1B
	CALL SUBOPT_0x19
	ADIW R26,4
	CALL __GETD1P
	RJMP _0x2000115
_0x200007F:
	SBRS R16,2
	RJMP _0x2000081
	CALL SUBOPT_0x1B
	CALL SUBOPT_0x1E
	CALL __CWD1
	RJMP _0x2000115
_0x2000081:
	CALL SUBOPT_0x1B
	CALL SUBOPT_0x1E
	CLR  R22
	CLR  R23
_0x2000115:
	__PUTD1S 10
	SBRS R16,2
	RJMP _0x2000083
	LDD  R26,Y+13
	TST  R26
	BRPL _0x2000084
	CALL SUBOPT_0x1C
	CALL __ANEGD1
	CALL SUBOPT_0x1A
	LDI  R30,LOW(45)
	STD  Y+21,R30
_0x2000084:
	LDD  R30,Y+21
	CPI  R30,0
	BREQ _0x2000085
	SUBI R17,-LOW(1)
	SUBI R20,-LOW(1)
	RJMP _0x2000086
_0x2000085:
	ANDI R16,LOW(251)
_0x2000086:
_0x2000083:
	MOV  R19,R20
_0x200006F:
	SBRC R16,0
	RJMP _0x2000087
_0x2000088:
	CP   R17,R21
	BRSH _0x200008B
	CP   R19,R21
	BRLO _0x200008C
_0x200008B:
	RJMP _0x200008A
_0x200008C:
	SBRS R16,7
	RJMP _0x200008D
	SBRS R16,2
	RJMP _0x200008E
	ANDI R16,LOW(251)
	LDD  R18,Y+21
	SUBI R17,LOW(1)
	RJMP _0x200008F
_0x200008E:
	LDI  R18,LOW(48)
_0x200008F:
	RJMP _0x2000090
_0x200008D:
	LDI  R18,LOW(32)
_0x2000090:
	CALL SUBOPT_0x15
	SUBI R21,LOW(1)
	RJMP _0x2000088
_0x200008A:
_0x2000087:
_0x2000091:
	CP   R17,R20
	BRSH _0x2000093
	ORI  R16,LOW(16)
	SBRS R16,2
	RJMP _0x2000094
	CALL SUBOPT_0x20
	BREQ _0x2000095
	SUBI R21,LOW(1)
_0x2000095:
	SUBI R17,LOW(1)
	SUBI R20,LOW(1)
_0x2000094:
	LDI  R30,LOW(48)
	ST   -Y,R30
	CALL SUBOPT_0x18
	CPI  R21,0
	BREQ _0x2000096
	SUBI R21,LOW(1)
_0x2000096:
	SUBI R20,LOW(1)
	RJMP _0x2000091
_0x2000093:
	MOV  R19,R17
	LDD  R30,Y+20
	CPI  R30,0
	BRNE _0x2000097
_0x2000098:
	CPI  R19,0
	BREQ _0x200009A
	SBRS R16,3
	RJMP _0x200009B
	LDD  R30,Y+14
	LDD  R31,Y+14+1
	LPM  R18,Z+
	STD  Y+14,R30
	STD  Y+14+1,R31
	RJMP _0x200009C
_0x200009B:
	LDD  R26,Y+14
	LDD  R27,Y+14+1
	LD   R18,X+
	STD  Y+14,R26
	STD  Y+14+1,R27
_0x200009C:
	CALL SUBOPT_0x15
	CPI  R21,0
	BREQ _0x200009D
	SUBI R21,LOW(1)
_0x200009D:
	SUBI R19,LOW(1)
	RJMP _0x2000098
_0x200009A:
	RJMP _0x200009E
_0x2000097:
_0x20000A0:
	CALL SUBOPT_0x21
	CALL __DIVD21U
	MOV  R18,R30
	CPI  R18,10
	BRLO _0x20000A2
	SBRS R16,3
	RJMP _0x20000A3
	SUBI R18,-LOW(55)
	RJMP _0x20000A4
_0x20000A3:
	SUBI R18,-LOW(87)
_0x20000A4:
	RJMP _0x20000A5
_0x20000A2:
	SUBI R18,-LOW(48)
_0x20000A5:
	SBRC R16,4
	RJMP _0x20000A7
	CPI  R18,49
	BRSH _0x20000A9
	__GETD2S 16
	__CPD2N 0x1
	BRNE _0x20000A8
_0x20000A9:
	RJMP _0x20000AB
_0x20000A8:
	CP   R20,R19
	BRSH _0x2000116
	CP   R21,R19
	BRLO _0x20000AE
	SBRS R16,0
	RJMP _0x20000AF
_0x20000AE:
	RJMP _0x20000AD
_0x20000AF:
	LDI  R18,LOW(32)
	SBRS R16,7
	RJMP _0x20000B0
_0x2000116:
	LDI  R18,LOW(48)
_0x20000AB:
	ORI  R16,LOW(16)
	SBRS R16,2
	RJMP _0x20000B1
	CALL SUBOPT_0x20
	BREQ _0x20000B2
	SUBI R21,LOW(1)
_0x20000B2:
_0x20000B1:
_0x20000B0:
_0x20000A7:
	CALL SUBOPT_0x15
	CPI  R21,0
	BREQ _0x20000B3
	SUBI R21,LOW(1)
_0x20000B3:
_0x20000AD:
	SUBI R19,LOW(1)
	CALL SUBOPT_0x21
	CALL __MODD21U
	CALL SUBOPT_0x1A
	LDD  R30,Y+20
	__GETD2S 16
	CLR  R31
	CLR  R22
	CLR  R23
	CALL __DIVD21U
	CALL SUBOPT_0x1F
	__GETD1S 16
	CALL __CPD10
	BREQ _0x20000A1
	RJMP _0x20000A0
_0x20000A1:
_0x200009E:
	SBRS R16,0
	RJMP _0x20000B4
_0x20000B5:
	CPI  R21,0
	BREQ _0x20000B7
	SUBI R21,LOW(1)
	LDI  R30,LOW(32)
	ST   -Y,R30
	CALL SUBOPT_0x18
	RJMP _0x20000B5
_0x20000B7:
_0x20000B4:
_0x20000B8:
_0x2000054:
_0x2000114:
	LDI  R17,LOW(0)
_0x2000035:
	RJMP _0x2000030
_0x2000032:
	LDD  R26,Y+6
	LDD  R27,Y+6+1
	CALL __GETW1P
	CALL __LOADLOCR6
	ADIW R28,63
	ADIW R28,31
	RET
; .FEND
_printf:
; .FSTART _printf
	PUSH R15
	MOV  R15,R24
	SBIW R28,6
	ST   -Y,R17
	ST   -Y,R16
	MOVW R26,R28
	ADIW R26,4
	CALL __ADDW2R15
	MOVW R16,R26
	LDI  R30,LOW(0)
	STD  Y+4,R30
	STD  Y+4+1,R30
	STD  Y+6,R30
	STD  Y+6+1,R30
	MOVW R26,R28
	ADIW R26,8
	CALL __ADDW2R15
	CALL __GETW1P
	ST   -Y,R31
	ST   -Y,R30
	ST   -Y,R17
	ST   -Y,R16
	LDI  R30,LOW(_put_usart_G100)
	LDI  R31,HIGH(_put_usart_G100)
	ST   -Y,R31
	ST   -Y,R30
	MOVW R26,R28
	ADIW R26,8
	RCALL __print_G100
	LDD  R17,Y+1
	LDD  R16,Y+0
	ADIW R28,8
	POP  R15
	RET
; .FEND

	.CSEG

	.CSEG
_strcpyf:
; .FSTART _strcpyf
	ST   -Y,R27
	ST   -Y,R26
    ld   r30,y+
    ld   r31,y+
    ld   r26,y+
    ld   r27,y+
    movw r24,r26
strcpyf0:
	lpm  r0,z+
    st   x+,r0
    tst  r0
    brne strcpyf0
    movw r30,r24
    ret
; .FEND
_strlen:
; .FSTART _strlen
	ST   -Y,R27
	ST   -Y,R26
    ld   r26,y+
    ld   r27,y+
    clr  r30
    clr  r31
strlen0:
    ld   r22,x+
    tst  r22
    breq strlen1
    adiw r30,1
    rjmp strlen0
strlen1:
    ret
; .FEND
_strlenf:
; .FSTART _strlenf
	ST   -Y,R27
	ST   -Y,R26
    clr  r26
    clr  r27
    ld   r30,y+
    ld   r31,y+
strlenf0:
	lpm  r0,z+
    tst  r0
    breq strlenf1
    adiw r26,1
    rjmp strlenf0
strlenf1:
    movw r30,r26
    ret
; .FEND

	.CSEG
_ftrunc:
; .FSTART _ftrunc
	CALL __PUTPARD2
   ldd  r23,y+3
   ldd  r22,y+2
   ldd  r31,y+1
   ld   r30,y
   bst  r23,7
   lsl  r23
   sbrc r22,7
   sbr  r23,1
   mov  r25,r23
   subi r25,0x7e
   breq __ftrunc0
   brcs __ftrunc0
   cpi  r25,24
   brsh __ftrunc1
   clr  r26
   clr  r27
   clr  r24
__ftrunc2:
   sec
   ror  r24
   ror  r27
   ror  r26
   dec  r25
   brne __ftrunc2
   and  r30,r26
   and  r31,r27
   and  r22,r24
   rjmp __ftrunc1
__ftrunc0:
   clt
   clr  r23
   clr  r30
   clr  r31
   clr  r22
__ftrunc1:
   cbr  r22,0x80
   lsr  r23
   brcc __ftrunc3
   sbr  r22,0x80
__ftrunc3:
   bld  r23,7
   ld   r26,y+
   ld   r27,y+
   ld   r24,y+
   ld   r25,y+
   cp   r30,r26
   cpc  r31,r27
   cpc  r22,r24
   cpc  r23,r25
   bst  r25,7
   ret
; .FEND
_floor:
; .FSTART _floor
	CALL __PUTPARD2
	CALL __GETD2S0
	CALL _ftrunc
	CALL __PUTD1S0
    brne __floor1
__floor0:
	CALL __GETD1S0
	RJMP _0x20A0003
__floor1:
    brtc __floor0
	CALL __GETD1S0
	__GETD2N 0x3F800000
	CALL __SUBF12
_0x20A0003:
	ADIW R28,4
	RET
; .FEND

	.CSEG
_ftoa:
; .FSTART _ftoa
	RCALL SUBOPT_0x8
	LDI  R30,LOW(0)
	STD  Y+2,R30
	LDI  R30,LOW(63)
	STD  Y+3,R30
	ST   -Y,R17
	ST   -Y,R16
	LDD  R30,Y+11
	LDD  R31,Y+11+1
	CPI  R30,LOW(0xFFFF)
	LDI  R26,HIGH(0xFFFF)
	CPC  R31,R26
	BRNE _0x208000D
	RCALL SUBOPT_0x22
	__POINTW2FN _0x2080000,0
	CALL _strcpyf
	RJMP _0x20A0002
_0x208000D:
	CPI  R30,LOW(0x7FFF)
	LDI  R26,HIGH(0x7FFF)
	CPC  R31,R26
	BRNE _0x208000C
	RCALL SUBOPT_0x22
	__POINTW2FN _0x2080000,1
	CALL _strcpyf
	RJMP _0x20A0002
_0x208000C:
	LDD  R26,Y+12
	TST  R26
	BRPL _0x208000F
	__GETD1S 9
	CALL __ANEGF1
	RCALL SUBOPT_0x23
	RCALL SUBOPT_0x24
	LDI  R30,LOW(45)
	ST   X,R30
_0x208000F:
	LDD  R26,Y+8
	CPI  R26,LOW(0x7)
	BRLO _0x2080010
	LDI  R30,LOW(6)
	STD  Y+8,R30
_0x2080010:
	LDD  R17,Y+8
_0x2080011:
	MOV  R30,R17
	SUBI R17,1
	CPI  R30,0
	BREQ _0x2080013
	RCALL SUBOPT_0x6
	RCALL SUBOPT_0x10
	RCALL SUBOPT_0x25
	RJMP _0x2080011
_0x2080013:
	RCALL SUBOPT_0x26
	CALL __ADDF12
	RCALL SUBOPT_0x23
	LDI  R17,LOW(0)
	__GETD1N 0x3F800000
	RCALL SUBOPT_0x25
_0x2080014:
	RCALL SUBOPT_0x26
	CALL __CMPF12
	BRLO _0x2080016
	RCALL SUBOPT_0x6
	RCALL SUBOPT_0xD
	RCALL SUBOPT_0x25
	SUBI R17,-LOW(1)
	CPI  R17,39
	BRLO _0x2080017
	RCALL SUBOPT_0x22
	__POINTW2FN _0x2080000,5
	CALL _strcpyf
	RJMP _0x20A0002
_0x2080017:
	RJMP _0x2080014
_0x2080016:
	CPI  R17,0
	BRNE _0x2080018
	RCALL SUBOPT_0x24
	LDI  R30,LOW(48)
	ST   X,R30
	RJMP _0x2080019
_0x2080018:
_0x208001A:
	MOV  R30,R17
	SUBI R17,1
	CPI  R30,0
	BREQ _0x208001C
	RCALL SUBOPT_0x6
	RCALL SUBOPT_0x10
	RCALL SUBOPT_0xF
	MOVW R26,R30
	MOVW R24,R22
	CALL _floor
	RCALL SUBOPT_0x25
	RCALL SUBOPT_0x26
	CALL __DIVF21
	CALL __CFD1U
	MOV  R16,R30
	RCALL SUBOPT_0x24
	RCALL SUBOPT_0x12
	LDI  R31,0
	RCALL SUBOPT_0x6
	CALL __CWD1
	CALL __CDF1
	CALL __MULF12
	RCALL SUBOPT_0x27
	RCALL SUBOPT_0x13
	RCALL SUBOPT_0x23
	RJMP _0x208001A
_0x208001C:
_0x2080019:
	LDD  R30,Y+8
	CPI  R30,0
	BREQ _0x20A0001
	RCALL SUBOPT_0x24
	LDI  R30,LOW(46)
	ST   X,R30
_0x208001E:
	LDD  R30,Y+8
	SUBI R30,LOW(1)
	STD  Y+8,R30
	SUBI R30,-LOW(1)
	BREQ _0x2080020
	RCALL SUBOPT_0x27
	RCALL SUBOPT_0xD
	RCALL SUBOPT_0x23
	__GETD1S 9
	CALL __CFD1U
	MOV  R16,R30
	RCALL SUBOPT_0x24
	RCALL SUBOPT_0x12
	LDI  R31,0
	RCALL SUBOPT_0x27
	CALL __CWD1
	CALL __CDF1
	RCALL SUBOPT_0x13
	RCALL SUBOPT_0x23
	RJMP _0x208001E
_0x2080020:
_0x20A0001:
	LDD  R26,Y+6
	LDD  R27,Y+6+1
	LDI  R30,LOW(0)
	ST   X,R30
_0x20A0002:
	LDD  R17,Y+1
	LDD  R16,Y+0
	ADIW R28,13
	RET
; .FEND

	.DSEG

	.CSEG

	.DSEG
__seed_G104:
	.BYTE 0x4

	.CSEG
;OPTIMIZER ADDED SUBROUTINE, CALLED 2 TIMES, CODE SIZE REDUCTION:3 WORDS
SUBOPT_0x0:
	__PUTD1S 2
	__GETD2S 2
	RET

;OPTIMIZER ADDED SUBROUTINE, CALLED 8 TIMES, CODE SIZE REDUCTION:11 WORDS
SUBOPT_0x1:
	__GETD1N 0x41200000
	RET

;OPTIMIZER ADDED SUBROUTINE, CALLED 2 TIMES, CODE SIZE REDUCTION:5 WORDS
SUBOPT_0x2:
	__GETD2S 2
	__GETD1N 0x42200000
	CALL __CMPF12
	RET

;OPTIMIZER ADDED SUBROUTINE, CALLED 2 TIMES, CODE SIZE REDUCTION:5 WORDS
SUBOPT_0x3:
	__GETD2S 2
	__GETD1N 0x425C0000
	CALL __CMPF12
	RET

;OPTIMIZER ADDED SUBROUTINE, CALLED 3 TIMES, CODE SIZE REDUCTION:19 WORDS
SUBOPT_0x4:
	ST   -Y,R31
	ST   -Y,R30
	__GETD1S 4
	CALL __PUTPARD1
	LDI  R24,4
	CALL _printf
	ADIW R28,6
	SBI  0x18,3
	RET

;OPTIMIZER ADDED SUBROUTINE, CALLED 2 TIMES, CODE SIZE REDUCTION:5 WORDS
SUBOPT_0x5:
	__GETD2S 2
	__GETD1N 0x42700000
	CALL __CMPF12
	RET

;OPTIMIZER ADDED SUBROUTINE, CALLED 5 TIMES, CODE SIZE REDUCTION:5 WORDS
SUBOPT_0x6:
	__GETD2S 2
	RET

;OPTIMIZER ADDED SUBROUTINE, CALLED 6 TIMES, CODE SIZE REDUCTION:7 WORDS
SUBOPT_0x7:
	__GETD1S 4
	RET

;OPTIMIZER ADDED SUBROUTINE, CALLED 2 TIMES, CODE SIZE REDUCTION:2 WORDS
SUBOPT_0x8:
	ST   -Y,R27
	ST   -Y,R26
	SBIW R28,4
	LDI  R30,LOW(0)
	ST   Y,R30
	STD  Y+1,R30
	RET

;OPTIMIZER ADDED SUBROUTINE, CALLED 4 TIMES, CODE SIZE REDUCTION:27 WORDS
SUBOPT_0x9:
	__GETD2S 4
	RCALL SUBOPT_0x1
	CALL __MULF12
	__PUTD1S 4
	RET

;OPTIMIZER ADDED SUBROUTINE, CALLED 4 TIMES, CODE SIZE REDUCTION:15 WORDS
SUBOPT_0xA:
	RCALL SUBOPT_0x7
	__GETD2S 12
	CALL __CMPF12
	RET

;OPTIMIZER ADDED SUBROUTINE, CALLED 5 TIMES, CODE SIZE REDUCTION:5 WORDS
SUBOPT_0xB:
	__GETD2S 12
	RET

;OPTIMIZER ADDED SUBROUTINE, CALLED 2 TIMES, CODE SIZE REDUCTION:6 WORDS
SUBOPT_0xC:
	__GETD1N 0x3DCCCCCD
	CALL __MULF12
	__PUTD1S 12
	SUBI R19,-LOW(1)
	RET

;OPTIMIZER ADDED SUBROUTINE, CALLED 3 TIMES, CODE SIZE REDUCTION:1 WORDS
SUBOPT_0xD:
	RCALL SUBOPT_0x1
	CALL __MULF12
	RET

;OPTIMIZER ADDED SUBROUTINE, CALLED 3 TIMES, CODE SIZE REDUCTION:1 WORDS
SUBOPT_0xE:
	__PUTD1S 12
	RET

;OPTIMIZER ADDED SUBROUTINE, CALLED 3 TIMES, CODE SIZE REDUCTION:5 WORDS
SUBOPT_0xF:
	__GETD2N 0x3F000000
	CALL __ADDF12
	RET

;OPTIMIZER ADDED SUBROUTINE, CALLED 3 TIMES, CODE SIZE REDUCTION:5 WORDS
SUBOPT_0x10:
	__GETD1N 0x3DCCCCCD
	CALL __MULF12
	RET

;OPTIMIZER ADDED SUBROUTINE, CALLED 2 TIMES, CODE SIZE REDUCTION:1 WORDS
SUBOPT_0x11:
	LDD  R26,Y+8
	LDD  R27,Y+8+1
	ADIW R26,1
	STD  Y+8,R26
	STD  Y+8+1,R27
	SBIW R26,1
	RET

;OPTIMIZER ADDED SUBROUTINE, CALLED 3 TIMES, CODE SIZE REDUCTION:1 WORDS
SUBOPT_0x12:
	MOV  R30,R16
	SUBI R30,-LOW(48)
	ST   X,R30
	MOV  R30,R16
	RET

;OPTIMIZER ADDED SUBROUTINE, CALLED 3 TIMES, CODE SIZE REDUCTION:1 WORDS
SUBOPT_0x13:
	CALL __SWAPD12
	CALL __SUBF12
	RET

;OPTIMIZER ADDED SUBROUTINE, CALLED 4 TIMES, CODE SIZE REDUCTION:6 WORDS
SUBOPT_0x14:
	LDD  R30,Y+8
	LDD  R31,Y+8+1
	ADIW R30,1
	STD  Y+8,R30
	STD  Y+8+1,R31
	RET

;OPTIMIZER ADDED SUBROUTINE, CALLED 5 TIMES, CODE SIZE REDUCTION:13 WORDS
SUBOPT_0x15:
	ST   -Y,R18
	LDD  R26,Y+7
	LDD  R27,Y+7+1
	LDD  R30,Y+9
	LDD  R31,Y+9+1
	ICALL
	RET

;OPTIMIZER ADDED SUBROUTINE, CALLED 8 TIMES, CODE SIZE REDUCTION:25 WORDS
SUBOPT_0x16:
	__GETW1SX 90
	RET

;OPTIMIZER ADDED SUBROUTINE, CALLED 7 TIMES, CODE SIZE REDUCTION:21 WORDS
SUBOPT_0x17:
	SBIW R30,4
	__PUTW1SX 90
	RET

;OPTIMIZER ADDED SUBROUTINE, CALLED 4 TIMES, CODE SIZE REDUCTION:6 WORDS
SUBOPT_0x18:
	LDD  R26,Y+7
	LDD  R27,Y+7+1
	LDD  R30,Y+9
	LDD  R31,Y+9+1
	ICALL
	RET

;OPTIMIZER ADDED SUBROUTINE, CALLED 6 TIMES, CODE SIZE REDUCTION:17 WORDS
SUBOPT_0x19:
	__GETW2SX 90
	RET

;OPTIMIZER ADDED SUBROUTINE, CALLED 4 TIMES, CODE SIZE REDUCTION:3 WORDS
SUBOPT_0x1A:
	__PUTD1S 10
	RET

;OPTIMIZER ADDED SUBROUTINE, CALLED 6 TIMES, CODE SIZE REDUCTION:7 WORDS
SUBOPT_0x1B:
	RCALL SUBOPT_0x16
	RJMP SUBOPT_0x17

;OPTIMIZER ADDED SUBROUTINE, CALLED 4 TIMES, CODE SIZE REDUCTION:3 WORDS
SUBOPT_0x1C:
	__GETD1S 10
	RET

;OPTIMIZER ADDED SUBROUTINE, CALLED 2 TIMES, CODE SIZE REDUCTION:2 WORDS
SUBOPT_0x1D:
	STD  Y+14,R30
	STD  Y+14+1,R31
	LDD  R26,Y+14
	LDD  R27,Y+14+1
	CALL _strlen
	MOV  R17,R30
	RET

;OPTIMIZER ADDED SUBROUTINE, CALLED 4 TIMES, CODE SIZE REDUCTION:6 WORDS
SUBOPT_0x1E:
	RCALL SUBOPT_0x19
	ADIW R26,4
	CALL __GETW1P
	RET

;OPTIMIZER ADDED SUBROUTINE, CALLED 5 TIMES, CODE SIZE REDUCTION:5 WORDS
SUBOPT_0x1F:
	__PUTD1S 16
	RET

;OPTIMIZER ADDED SUBROUTINE, CALLED 2 TIMES, CODE SIZE REDUCTION:12 WORDS
SUBOPT_0x20:
	ANDI R16,LOW(251)
	LDD  R30,Y+21
	ST   -Y,R30
	__GETW2SX 87
	__GETW1SX 89
	ICALL
	CPI  R21,0
	RET

;OPTIMIZER ADDED SUBROUTINE, CALLED 2 TIMES, CODE SIZE REDUCTION:3 WORDS
SUBOPT_0x21:
	__GETD1S 16
	__GETD2S 10
	RET

;OPTIMIZER ADDED SUBROUTINE, CALLED 3 TIMES, CODE SIZE REDUCTION:1 WORDS
SUBOPT_0x22:
	LDD  R30,Y+6
	LDD  R31,Y+6+1
	ST   -Y,R31
	ST   -Y,R30
	RET

;OPTIMIZER ADDED SUBROUTINE, CALLED 5 TIMES, CODE SIZE REDUCTION:5 WORDS
SUBOPT_0x23:
	__PUTD1S 9
	RET

;OPTIMIZER ADDED SUBROUTINE, CALLED 5 TIMES, CODE SIZE REDUCTION:13 WORDS
SUBOPT_0x24:
	LDD  R26,Y+6
	LDD  R27,Y+6+1
	ADIW R26,1
	STD  Y+6,R26
	STD  Y+6+1,R27
	SBIW R26,1
	RET

;OPTIMIZER ADDED SUBROUTINE, CALLED 4 TIMES, CODE SIZE REDUCTION:3 WORDS
SUBOPT_0x25:
	__PUTD1S 2
	RET

;OPTIMIZER ADDED SUBROUTINE, CALLED 3 TIMES, CODE SIZE REDUCTION:9 WORDS
SUBOPT_0x26:
	__GETD1S 2
	__GETD2S 9
	RET

;OPTIMIZER ADDED SUBROUTINE, CALLED 3 TIMES, CODE SIZE REDUCTION:1 WORDS
SUBOPT_0x27:
	__GETD2S 9
	RET


	.CSEG
_delay_ms:
	adiw r26,0
	breq __delay_ms1
__delay_ms0:
	__DELAY_USW 0x3E8
	wdr
	sbiw r26,1
	brne __delay_ms0
__delay_ms1:
	ret

__ANEGF1:
	SBIW R30,0
	SBCI R22,0
	SBCI R23,0
	BREQ __ANEGF10
	SUBI R23,0x80
__ANEGF10:
	RET

__ROUND_REPACK:
	TST  R21
	BRPL __REPACK
	CPI  R21,0x80
	BRNE __ROUND_REPACK0
	SBRS R30,0
	RJMP __REPACK
__ROUND_REPACK0:
	ADIW R30,1
	ADC  R22,R25
	ADC  R23,R25
	BRVS __REPACK1

__REPACK:
	LDI  R21,0x80
	EOR  R21,R23
	BRNE __REPACK0
	PUSH R21
	RJMP __ZERORES
__REPACK0:
	CPI  R21,0xFF
	BREQ __REPACK1
	LSL  R22
	LSL  R0
	ROR  R21
	ROR  R22
	MOV  R23,R21
	RET
__REPACK1:
	PUSH R21
	TST  R0
	BRMI __REPACK2
	RJMP __MAXRES
__REPACK2:
	RJMP __MINRES

__UNPACK:
	LDI  R21,0x80
	MOV  R1,R25
	AND  R1,R21
	LSL  R24
	ROL  R25
	EOR  R25,R21
	LSL  R21
	ROR  R24

__UNPACK1:
	LDI  R21,0x80
	MOV  R0,R23
	AND  R0,R21
	LSL  R22
	ROL  R23
	EOR  R23,R21
	LSL  R21
	ROR  R22
	RET

__CFD1U:
	SET
	RJMP __CFD1U0
__CFD1:
	CLT
__CFD1U0:
	PUSH R21
	RCALL __UNPACK1
	CPI  R23,0x80
	BRLO __CFD10
	CPI  R23,0xFF
	BRCC __CFD10
	RJMP __ZERORES
__CFD10:
	LDI  R21,22
	SUB  R21,R23
	BRPL __CFD11
	NEG  R21
	CPI  R21,8
	BRTC __CFD19
	CPI  R21,9
__CFD19:
	BRLO __CFD17
	SER  R30
	SER  R31
	SER  R22
	LDI  R23,0x7F
	BLD  R23,7
	RJMP __CFD15
__CFD17:
	CLR  R23
	TST  R21
	BREQ __CFD15
__CFD18:
	LSL  R30
	ROL  R31
	ROL  R22
	ROL  R23
	DEC  R21
	BRNE __CFD18
	RJMP __CFD15
__CFD11:
	CLR  R23
__CFD12:
	CPI  R21,8
	BRLO __CFD13
	MOV  R30,R31
	MOV  R31,R22
	MOV  R22,R23
	SUBI R21,8
	RJMP __CFD12
__CFD13:
	TST  R21
	BREQ __CFD15
__CFD14:
	LSR  R23
	ROR  R22
	ROR  R31
	ROR  R30
	DEC  R21
	BRNE __CFD14
__CFD15:
	TST  R0
	BRPL __CFD16
	RCALL __ANEGD1
__CFD16:
	POP  R21
	RET

__CDF1U:
	SET
	RJMP __CDF1U0
__CDF1:
	CLT
__CDF1U0:
	SBIW R30,0
	SBCI R22,0
	SBCI R23,0
	BREQ __CDF10
	CLR  R0
	BRTS __CDF11
	TST  R23
	BRPL __CDF11
	COM  R0
	RCALL __ANEGD1
__CDF11:
	MOV  R1,R23
	LDI  R23,30
	TST  R1
__CDF12:
	BRMI __CDF13
	DEC  R23
	LSL  R30
	ROL  R31
	ROL  R22
	ROL  R1
	RJMP __CDF12
__CDF13:
	MOV  R30,R31
	MOV  R31,R22
	MOV  R22,R1
	PUSH R21
	RCALL __REPACK
	POP  R21
__CDF10:
	RET

__SWAPACC:
	PUSH R20
	MOVW R20,R30
	MOVW R30,R26
	MOVW R26,R20
	MOVW R20,R22
	MOVW R22,R24
	MOVW R24,R20
	MOV  R20,R0
	MOV  R0,R1
	MOV  R1,R20
	POP  R20
	RET

__UADD12:
	ADD  R30,R26
	ADC  R31,R27
	ADC  R22,R24
	RET

__NEGMAN1:
	COM  R30
	COM  R31
	COM  R22
	SUBI R30,-1
	SBCI R31,-1
	SBCI R22,-1
	RET

__SUBF12:
	PUSH R21
	RCALL __UNPACK
	CPI  R25,0x80
	BREQ __ADDF129
	LDI  R21,0x80
	EOR  R1,R21

	RJMP __ADDF120

__ADDF12:
	PUSH R21
	RCALL __UNPACK
	CPI  R25,0x80
	BREQ __ADDF129

__ADDF120:
	CPI  R23,0x80
	BREQ __ADDF128
__ADDF121:
	MOV  R21,R23
	SUB  R21,R25
	BRVS __ADDF1211
	BRPL __ADDF122
	RCALL __SWAPACC
	RJMP __ADDF121
__ADDF122:
	CPI  R21,24
	BRLO __ADDF123
	CLR  R26
	CLR  R27
	CLR  R24
__ADDF123:
	CPI  R21,8
	BRLO __ADDF124
	MOV  R26,R27
	MOV  R27,R24
	CLR  R24
	SUBI R21,8
	RJMP __ADDF123
__ADDF124:
	TST  R21
	BREQ __ADDF126
__ADDF125:
	LSR  R24
	ROR  R27
	ROR  R26
	DEC  R21
	BRNE __ADDF125
__ADDF126:
	MOV  R21,R0
	EOR  R21,R1
	BRMI __ADDF127
	RCALL __UADD12
	BRCC __ADDF129
	ROR  R22
	ROR  R31
	ROR  R30
	INC  R23
	BRVC __ADDF129
	RJMP __MAXRES
__ADDF128:
	RCALL __SWAPACC
__ADDF129:
	RCALL __REPACK
	POP  R21
	RET
__ADDF1211:
	BRCC __ADDF128
	RJMP __ADDF129
__ADDF127:
	SUB  R30,R26
	SBC  R31,R27
	SBC  R22,R24
	BREQ __ZERORES
	BRCC __ADDF1210
	COM  R0
	RCALL __NEGMAN1
__ADDF1210:
	TST  R22
	BRMI __ADDF129
	LSL  R30
	ROL  R31
	ROL  R22
	DEC  R23
	BRVC __ADDF1210

__ZERORES:
	CLR  R30
	CLR  R31
	CLR  R22
	CLR  R23
	POP  R21
	RET

__MINRES:
	SER  R30
	SER  R31
	LDI  R22,0x7F
	SER  R23
	POP  R21
	RET

__MAXRES:
	SER  R30
	SER  R31
	LDI  R22,0x7F
	LDI  R23,0x7F
	POP  R21
	RET

__MULF12:
	PUSH R21
	RCALL __UNPACK
	CPI  R23,0x80
	BREQ __ZERORES
	CPI  R25,0x80
	BREQ __ZERORES
	EOR  R0,R1
	SEC
	ADC  R23,R25
	BRVC __MULF124
	BRLT __ZERORES
__MULF125:
	TST  R0
	BRMI __MINRES
	RJMP __MAXRES
__MULF124:
	PUSH R0
	PUSH R17
	PUSH R18
	PUSH R19
	PUSH R20
	CLR  R17
	CLR  R18
	CLR  R25
	MUL  R22,R24
	MOVW R20,R0
	MUL  R24,R31
	MOV  R19,R0
	ADD  R20,R1
	ADC  R21,R25
	MUL  R22,R27
	ADD  R19,R0
	ADC  R20,R1
	ADC  R21,R25
	MUL  R24,R30
	RCALL __MULF126
	MUL  R27,R31
	RCALL __MULF126
	MUL  R22,R26
	RCALL __MULF126
	MUL  R27,R30
	RCALL __MULF127
	MUL  R26,R31
	RCALL __MULF127
	MUL  R26,R30
	ADD  R17,R1
	ADC  R18,R25
	ADC  R19,R25
	ADC  R20,R25
	ADC  R21,R25
	MOV  R30,R19
	MOV  R31,R20
	MOV  R22,R21
	MOV  R21,R18
	POP  R20
	POP  R19
	POP  R18
	POP  R17
	POP  R0
	TST  R22
	BRMI __MULF122
	LSL  R21
	ROL  R30
	ROL  R31
	ROL  R22
	RJMP __MULF123
__MULF122:
	INC  R23
	BRVS __MULF125
__MULF123:
	RCALL __ROUND_REPACK
	POP  R21
	RET

__MULF127:
	ADD  R17,R0
	ADC  R18,R1
	ADC  R19,R25
	RJMP __MULF128
__MULF126:
	ADD  R18,R0
	ADC  R19,R1
__MULF128:
	ADC  R20,R25
	ADC  R21,R25
	RET

__DIVF21:
	PUSH R21
	RCALL __UNPACK
	CPI  R23,0x80
	BRNE __DIVF210
	TST  R1
__DIVF211:
	BRPL __DIVF219
	RJMP __MINRES
__DIVF219:
	RJMP __MAXRES
__DIVF210:
	CPI  R25,0x80
	BRNE __DIVF218
__DIVF217:
	RJMP __ZERORES
__DIVF218:
	EOR  R0,R1
	SEC
	SBC  R25,R23
	BRVC __DIVF216
	BRLT __DIVF217
	TST  R0
	RJMP __DIVF211
__DIVF216:
	MOV  R23,R25
	PUSH R17
	PUSH R18
	PUSH R19
	PUSH R20
	CLR  R1
	CLR  R17
	CLR  R18
	CLR  R19
	CLR  R20
	CLR  R21
	LDI  R25,32
__DIVF212:
	CP   R26,R30
	CPC  R27,R31
	CPC  R24,R22
	CPC  R20,R17
	BRLO __DIVF213
	SUB  R26,R30
	SBC  R27,R31
	SBC  R24,R22
	SBC  R20,R17
	SEC
	RJMP __DIVF214
__DIVF213:
	CLC
__DIVF214:
	ROL  R21
	ROL  R18
	ROL  R19
	ROL  R1
	ROL  R26
	ROL  R27
	ROL  R24
	ROL  R20
	DEC  R25
	BRNE __DIVF212
	MOVW R30,R18
	MOV  R22,R1
	POP  R20
	POP  R19
	POP  R18
	POP  R17
	TST  R22
	BRMI __DIVF215
	LSL  R21
	ROL  R30
	ROL  R31
	ROL  R22
	DEC  R23
	BRVS __DIVF217
__DIVF215:
	RCALL __ROUND_REPACK
	POP  R21
	RET

__CMPF12:
	TST  R25
	BRMI __CMPF120
	TST  R23
	BRMI __CMPF121
	CP   R25,R23
	BRLO __CMPF122
	BRNE __CMPF121
	CP   R26,R30
	CPC  R27,R31
	CPC  R24,R22
	BRLO __CMPF122
	BREQ __CMPF123
__CMPF121:
	CLZ
	CLC
	RET
__CMPF122:
	CLZ
	SEC
	RET
__CMPF123:
	SEZ
	CLC
	RET
__CMPF120:
	TST  R23
	BRPL __CMPF122
	CP   R25,R23
	BRLO __CMPF121
	BRNE __CMPF122
	CP   R30,R26
	CPC  R31,R27
	CPC  R22,R24
	BRLO __CMPF122
	BREQ __CMPF123
	RJMP __CMPF121

__ADDW2R15:
	CLR  R0
	ADD  R26,R15
	ADC  R27,R0
	RET

__ANEGD1:
	COM  R31
	COM  R22
	COM  R23
	NEG  R30
	SBCI R31,-1
	SBCI R22,-1
	SBCI R23,-1
	RET

__CBD1:
	MOV  R31,R30
	ADD  R31,R31
	SBC  R31,R31
	MOV  R22,R31
	MOV  R23,R31
	RET

__CWD1:
	MOV  R22,R31
	ADD  R22,R22
	SBC  R22,R22
	MOV  R23,R22
	RET

__DIVB21U:
	CLR  R0
	LDI  R25,8
__DIVB21U1:
	LSL  R26
	ROL  R0
	SUB  R0,R30
	BRCC __DIVB21U2
	ADD  R0,R30
	RJMP __DIVB21U3
__DIVB21U2:
	SBR  R26,1
__DIVB21U3:
	DEC  R25
	BRNE __DIVB21U1
	MOV  R30,R26
	MOV  R26,R0
	RET

__DIVB21:
	RCALL __CHKSIGNB
	RCALL __DIVB21U
	BRTC __DIVB211
	NEG  R30
__DIVB211:
	RET

__DIVD21U:
	PUSH R19
	PUSH R20
	PUSH R21
	CLR  R0
	CLR  R1
	CLR  R20
	CLR  R21
	LDI  R19,32
__DIVD21U1:
	LSL  R26
	ROL  R27
	ROL  R24
	ROL  R25
	ROL  R0
	ROL  R1
	ROL  R20
	ROL  R21
	SUB  R0,R30
	SBC  R1,R31
	SBC  R20,R22
	SBC  R21,R23
	BRCC __DIVD21U2
	ADD  R0,R30
	ADC  R1,R31
	ADC  R20,R22
	ADC  R21,R23
	RJMP __DIVD21U3
__DIVD21U2:
	SBR  R26,1
__DIVD21U3:
	DEC  R19
	BRNE __DIVD21U1
	MOVW R30,R26
	MOVW R22,R24
	MOVW R26,R0
	MOVW R24,R20
	POP  R21
	POP  R20
	POP  R19
	RET

__MODB21:
	CLT
	SBRS R26,7
	RJMP __MODB211
	NEG  R26
	SET
__MODB211:
	SBRC R30,7
	NEG  R30
	RCALL __DIVB21U
	MOV  R30,R26
	BRTC __MODB212
	NEG  R30
__MODB212:
	RET

__MODD21U:
	RCALL __DIVD21U
	MOVW R30,R26
	MOVW R22,R24
	RET

__CHKSIGNB:
	CLT
	SBRS R30,7
	RJMP __CHKSB1
	NEG  R30
	SET
__CHKSB1:
	SBRS R26,7
	RJMP __CHKSB2
	NEG  R26
	BLD  R0,0
	INC  R0
	BST  R0,0
__CHKSB2:
	RET

__GETW1P:
	LD   R30,X+
	LD   R31,X
	SBIW R26,1
	RET

__GETD1P:
	LD   R30,X+
	LD   R31,X+
	LD   R22,X+
	LD   R23,X
	SBIW R26,3
	RET

__GETD1S0:
	LD   R30,Y
	LDD  R31,Y+1
	LDD  R22,Y+2
	LDD  R23,Y+3
	RET

__GETD2S0:
	LD   R26,Y
	LDD  R27,Y+1
	LDD  R24,Y+2
	LDD  R25,Y+3
	RET

__PUTD1S0:
	ST   Y,R30
	STD  Y+1,R31
	STD  Y+2,R22
	STD  Y+3,R23
	RET

__PUTPARD1:
	ST   -Y,R23
	ST   -Y,R22
	ST   -Y,R31
	ST   -Y,R30
	RET

__PUTPARD2:
	ST   -Y,R25
	ST   -Y,R24
	ST   -Y,R27
	ST   -Y,R26
	RET

__SWAPD12:
	MOV  R1,R24
	MOV  R24,R22
	MOV  R22,R1
	MOV  R1,R25
	MOV  R25,R23
	MOV  R23,R1

__SWAPW12:
	MOV  R1,R27
	MOV  R27,R31
	MOV  R31,R1

__SWAPB12:
	MOV  R1,R26
	MOV  R26,R30
	MOV  R30,R1
	RET

__CPD10:
	SBIW R30,0
	SBCI R22,0
	SBCI R23,0
	RET

__SAVELOCR6:
	ST   -Y,R21
__SAVELOCR5:
	ST   -Y,R20
__SAVELOCR4:
	ST   -Y,R19
__SAVELOCR3:
	ST   -Y,R18
__SAVELOCR2:
	ST   -Y,R17
	ST   -Y,R16
	RET

__LOADLOCR6:
	LDD  R21,Y+5
__LOADLOCR5:
	LDD  R20,Y+4
__LOADLOCR4:
	LDD  R19,Y+3
__LOADLOCR3:
	LDD  R18,Y+2
__LOADLOCR2:
	LDD  R17,Y+1
	LD   R16,Y
	RET

;END OF CODE MARKER
__END_OF_CODE:
